; Function Attrs: null_pointer_is_valid sspstrong uwtable
define internal fastcc i32 @dissect_PNPTCP_FollowUpPDU(ptr noundef %0, ptr noundef %1, ptr noundef %2, ptr noundef %3, i16 noundef zeroext %4, ptr noundef %5, ptr noundef %6) unnamed_addr #0 {
  %8 = alloca i16, align 2
  %9 = alloca i32, align 4
  call void @llvm.lifetime.start.p0(i64 2, ptr nonnull %8) #3
  call void @llvm.lifetime.start.p0(i64 4, ptr nonnull %9) #3
  %10 = load i32, ptr @hf_pn_ptcp_header, align 4
  %11 = tail call ptr @proto_tree_add_item(ptr noundef %2, i32 noundef %10, ptr noundef %0, i32 noundef 0, i32 noundef 20, i32 noundef 0)
  %12 = load i32, ptr @ett_pn_ptcp_header, align 4
  %13 = tail call ptr @proto_item_add_subtree(ptr noundef %11, i32 noundef %12)
  %14 = tail call i32 @dissect_pn_padding(ptr noundef %0, i32 noundef 0, ptr noundef %1, ptr noundef %13, i32 noundef 12)
  %15 = load i32, ptr @hf_pn_ptcp_seq_id, align 4
  %16 = call i32 @dissect_pn_uint16(ptr noundef %0, i32 noundef %14, ptr noundef %1, ptr noundef %13, i32 noundef %15, ptr noundef nonnull %8)
  %17 = call i32 @dissect_pn_align4(ptr noundef %0, i32 noundef %16, ptr noundef %1, ptr noundef %13)
  %18 = load i32, ptr @hf_pn_ptcp_delay1ns_fup, align 4
  %19 = call ptr @proto_tree_add_item_ret_int(ptr noundef %13, i32 noundef %18, ptr noundef %0, i32 noundef %17, i32 noundef 4, i32 noundef 0, ptr noundef nonnull %9)
  %20 = add i32 %17, 4
  %21 = getelementptr inbounds nuw i8, ptr %1, i64 8
  %22 = load ptr, ptr %21, align 8
  %23 = load i16, ptr %8, align 2
  %24 = zext i16 %23 to i32
  %25 = load i32, ptr %9, align 4
  call void (ptr, i32, ptr, ...) @col_append_fstr(ptr noundef %22, i32 noundef 25, ptr noundef nonnull @.str.171, ptr noundef %5, i32 noundef %24, i32 noundef %25)
  %26 = load i16, ptr %8, align 2
  %27 = zext i16 %26 to i32
  %28 = load i32, ptr %9, align 4
  call void (ptr, ptr, ...) @proto_item_append_text(ptr noundef %3, ptr noundef nonnull @.str.172, ptr noundef %6, i32 noundef %27, i32 noundef %28)
  %29 = load i16, ptr %8, align 2
  %30 = zext i16 %29 to i32
  %31 = load i32, ptr %9, align 4
  call void (ptr, ptr, ...) @proto_item_append_text(ptr noundef %11, ptr noundef nonnull @.str.173, i32 noundef %30, i32 noundef %31)
  %32 = call fastcc i32 @dissect_PNPTCP_blocks(ptr noundef %0, i32 noundef %20, ptr noundef %1, ptr noundef %2, i16 noundef zeroext %4)
  call void @llvm.lifetime.end.p0(i64 4, ptr nonnull %9) #3
  call void @llvm.lifetime.end.p0(i64 2, ptr nonnull %8) #3
  ret i32 %32
}